target datalayout = "e-m:e-p270:32:32-p271:32:32-p272:64:64-i64:64-i128:128-f80:128-n8:16:32:64-S128"
target triple = "x86_64-unknown-linux-gnu"

; Function Attrs: mustprogress nounwind uwtable
define internal noundef i32 @_ZN4pugi4impl12_GLOBAL__N_117string_to_integerIjEET_PKcS3_S3_(ptr noundef %value, i32 noundef %minv, i32 noundef %maxv) #0 {
entry:
  %retval = alloca i32, align 4
  %value.addr = alloca ptr, align 8
  %minv.addr = alloca i32, align 4
  %maxv.addr = alloca i32, align 4
  %result = alloca i32, align 4
  %s = alloca ptr, align 8
  %negative = alloca i8, align 1
  %overflow = alloca i8, align 1
  %start = alloca ptr, align 8
  %digits = alloca i64, align 8
  %start48 = alloca ptr, align 8
  %digits62 = alloca i64, align 8
  %max_digits10 = alloca i64, align 8
  %max_lead = alloca i8, align 1
  %high_bit = alloca i64, align 8
  store ptr %value, ptr %value.addr, align 8
  store i32 %minv, ptr %minv.addr, align 4
  store i32 %maxv, ptr %maxv.addr, align 4
  store i32 0, ptr %result, align 4
  %0 = load ptr, ptr %value.addr, align 8
  store ptr %0, ptr %s, align 8
  br label %while.cond

while.cond:                                       ; preds = %while.body, %entry
  %1 = load ptr, ptr %s, align 8
  %2 = load i8, ptr %1, align 1
  %idxprom = zext i8 %2 to i64
  %arrayidx = getelementptr inbounds [256 x i8], ptr @_ZN4pugi4impl12_GLOBAL__N_114chartype_tableE, i64 0, i64 %idxprom
  %3 = load i8, ptr %arrayidx, align 1
  %conv = zext i8 %3 to i32
  %and = and i32 %conv, 8
  %tobool = icmp ne i32 %and, 0
  br i1 %tobool, label %while.body, label %while.end

while.body:                                       ; preds = %while.cond
  %4 = load ptr, ptr %s, align 8
  %incdec.ptr = getelementptr inbounds i8, ptr %4, i32 1
  store ptr %incdec.ptr, ptr %s, align 8
  br label %while.cond, !llvm.loop !60

while.end:                                        ; preds = %while.cond
  %5 = load ptr, ptr %s, align 8
  %6 = load i8, ptr %5, align 1
  %conv1 = sext i8 %6 to i32
  %cmp = icmp eq i32 %conv1, 45
  %frombool = zext i1 %cmp to i8
  store i8 %frombool, ptr %negative, align 1
  %7 = load ptr, ptr %s, align 8
  %8 = load i8, ptr %7, align 1
  %conv2 = sext i8 %8 to i32
  %cmp3 = icmp eq i32 %conv2, 43
  br i1 %cmp3, label %lor.end, label %lor.rhs

lor.rhs:                                          ; preds = %while.end
  %9 = load ptr, ptr %s, align 8
  %10 = load i8, ptr %9, align 1
  %conv4 = sext i8 %10 to i32
  %cmp5 = icmp eq i32 %conv4, 45
  br label %lor.end

lor.end:                                          ; preds = %lor.rhs, %while.end
  %11 = phi i1 [ true, %while.end ], [ %cmp5, %lor.rhs ]
  %conv6 = zext i1 %11 to i32
  %12 = load ptr, ptr %s, align 8
  %idx.ext = sext i32 %conv6 to i64
  %add.ptr = getelementptr inbounds i8, ptr %12, i64 %idx.ext
  store ptr %add.ptr, ptr %s, align 8
  store i8 0, ptr %overflow, align 1
  %13 = load ptr, ptr %s, align 8
  %arrayidx7 = getelementptr inbounds i8, ptr %13, i64 0
  %14 = load i8, ptr %arrayidx7, align 1
  %conv8 = sext i8 %14 to i32
  %cmp9 = icmp eq i32 %conv8, 48
  br i1 %cmp9, label %land.lhs.true, label %if.else41

land.lhs.true:                                    ; preds = %lor.end
  %15 = load ptr, ptr %s, align 8
  %arrayidx10 = getelementptr inbounds i8, ptr %15, i64 1
  %16 = load i8, ptr %arrayidx10, align 1
  %conv11 = sext i8 %16 to i32
  %or = or i32 %conv11, 32
  %cmp12 = icmp eq i32 %or, 120
  br i1 %cmp12, label %if.then, label %if.else41

if.then:                                          ; preds = %land.lhs.true
  %17 = load ptr, ptr %s, align 8
  %add.ptr13 = getelementptr inbounds i8, ptr %17, i64 2
  store ptr %add.ptr13, ptr %s, align 8
  br label %while.cond14

while.cond14:                                     ; preds = %while.body17, %if.then
  %18 = load ptr, ptr %s, align 8
  %19 = load i8, ptr %18, align 1
  %conv15 = sext i8 %19 to i32
  %cmp16 = icmp eq i32 %conv15, 48
  br i1 %cmp16, label %while.body17, label %while.end19

while.body17:                                     ; preds = %while.cond14
  %20 = load ptr, ptr %s, align 8
  %incdec.ptr18 = getelementptr inbounds i8, ptr %20, i32 1
  store ptr %incdec.ptr18, ptr %s, align 8
  br label %while.cond14, !llvm.loop !61

while.end19:                                      ; preds = %while.cond14
  %21 = load ptr, ptr %s, align 8
  store ptr %21, ptr %start, align 8
  br label %for.cond

for.cond:                                         ; preds = %if.end37, %while.end19
  %22 = load ptr, ptr %s, align 8
  %23 = load i8, ptr %22, align 1
  %conv20 = sext i8 %23 to i32
  %sub = sub nsw i32 %conv20, 48
  %cmp21 = icmp ult i32 %sub, 10
  br i1 %cmp21, label %if.then22, label %if.else

if.then22:                                        ; preds = %for.cond
  %24 = load i32, ptr %result, align 4
  %mul = mul i32 %24, 16
  %25 = load ptr, ptr %s, align 8
  %26 = load i8, ptr %25, align 1
  %conv23 = sext i8 %26 to i32
  %sub24 = sub nsw i32 %conv23, 48
  %add = add i32 %mul, %sub24
  store i32 %add, ptr %result, align 4
  br label %if.end37

if.else:                                          ; preds = %for.cond
  %27 = load ptr, ptr %s, align 8
  %28 = load i8, ptr %27, align 1
  %conv25 = sext i8 %28 to i32
  %or26 = or i32 %conv25, 32
  %sub27 = sub nsw i32 %or26, 97
  %cmp28 = icmp ult i32 %sub27, 6
  br i1 %cmp28, label %if.then29, label %if.else36

if.then29:                                        ; preds = %if.else
  %29 = load i32, ptr %result, align 4
  %mul30 = mul i32 %29, 16
  %30 = load ptr, ptr %s, align 8
  %31 = load i8, ptr %30, align 1
  %conv31 = sext i8 %31 to i32
  %or32 = or i32 %conv31, 32
  %sub33 = sub nsw i32 %or32, 97
  %add34 = add nsw i32 %sub33, 10
  %add35 = add i32 %mul30, %add34
  store i32 %add35, ptr %result, align 4
  br label %if.end

if.else36:                                        ; preds = %if.else
  br label %for.end

if.end:                                           ; preds = %if.then29
  br label %if.end37

if.end37:                                         ; preds = %if.end, %if.then22
  %32 = load ptr, ptr %s, align 8
  %incdec.ptr38 = getelementptr inbounds i8, ptr %32, i32 1
  store ptr %incdec.ptr38, ptr %s, align 8
  br label %for.cond, !llvm.loop !62

for.end:                                          ; preds = %if.else36
  %33 = load ptr, ptr %s, align 8
  %34 = load ptr, ptr %start, align 8
  %sub.ptr.lhs.cast = ptrtoint ptr %33 to i64
  %sub.ptr.rhs.cast = ptrtoint ptr %34 to i64
  %sub.ptr.sub = sub i64 %sub.ptr.lhs.cast, %sub.ptr.rhs.cast
  store i64 %sub.ptr.sub, ptr %digits, align 8
  %35 = load i64, ptr %digits, align 8
  %cmp39 = icmp ugt i64 %35, 8
  %frombool40 = zext i1 %cmp39 to i8
  store i8 %frombool40, ptr %overflow, align 1
  br label %if.end80

if.else41:                                        ; preds = %land.lhs.true, %lor.end
  br label %while.cond42

while.cond42:                                     ; preds = %while.body45, %if.else41
  %36 = load ptr, ptr %s, align 8
  %37 = load i8, ptr %36, align 1
  %conv43 = sext i8 %37 to i32
  %cmp44 = icmp eq i32 %conv43, 48
  br i1 %cmp44, label %while.body45, label %while.end47

while.body45:                                     ; preds = %while.cond42
  %38 = load ptr, ptr %s, align 8
  %incdec.ptr46 = getelementptr inbounds i8, ptr %38, i32 1
  store ptr %incdec.ptr46, ptr %s, align 8
  br label %while.cond42, !llvm.loop !63

while.end47:                                      ; preds = %while.cond42
  %39 = load ptr, ptr %s, align 8
  store ptr %39, ptr %start48, align 8
  br label %for.cond49

for.cond49:                                       ; preds = %if.end59, %while.end47
  %40 = load ptr, ptr %s, align 8
  %41 = load i8, ptr %40, align 1
  %conv50 = sext i8 %41 to i32
  %sub51 = sub nsw i32 %conv50, 48
  %cmp52 = icmp ult i32 %sub51, 10
  br i1 %cmp52, label %if.then53, label %if.else58

if.then53:                                        ; preds = %for.cond49
  %42 = load i32, ptr %result, align 4
  %mul54 = mul i32 %42, 10
  %43 = load ptr, ptr %s, align 8
  %44 = load i8, ptr %43, align 1
  %conv55 = sext i8 %44 to i32
  %sub56 = sub nsw i32 %conv55, 48
  %add57 = add i32 %mul54, %sub56
  store i32 %add57, ptr %result, align 4
  br label %if.end59

if.else58:                                        ; preds = %for.cond49
  br label %for.end61

if.end59:                                         ; preds = %if.then53
  %45 = load ptr, ptr %s, align 8
  %incdec.ptr60 = getelementptr inbounds i8, ptr %45, i32 1
  store ptr %incdec.ptr60, ptr %s, align 8
  br label %for.cond49, !llvm.loop !64

for.end61:                                        ; preds = %if.else58
  %46 = load ptr, ptr %s, align 8
  %47 = load ptr, ptr %start48, align 8
  %sub.ptr.lhs.cast63 = ptrtoint ptr %46 to i64
  %sub.ptr.rhs.cast64 = ptrtoint ptr %47 to i64
  %sub.ptr.sub65 = sub i64 %sub.ptr.lhs.cast63, %sub.ptr.rhs.cast64
  store i64 %sub.ptr.sub65, ptr %digits62, align 8
  store i64 10, ptr %max_digits10, align 8
  store i8 52, ptr %max_lead, align 1
  store i64 31, ptr %high_bit, align 8
  %48 = load i64, ptr %digits62, align 8
  %cmp66 = icmp uge i64 %48, 10
  br i1 %cmp66, label %land.rhs, label %land.end78

land.rhs:                                         ; preds = %for.end61
  %49 = load i64, ptr %digits62, align 8
  %cmp67 = icmp eq i64 %49, 10
  br i1 %cmp67, label %land.rhs68, label %land.end77

land.rhs68:                                       ; preds = %land.rhs
  %50 = load ptr, ptr %start48, align 8
  %51 = load i8, ptr %50, align 1
  %conv69 = sext i8 %51 to i32
  %cmp70 = icmp slt i32 %conv69, 52
  br i1 %cmp70, label %lor.end76, label %lor.rhs71

lor.rhs71:                                        ; preds = %land.rhs68
  %52 = load ptr, ptr %start48, align 8
  %53 = load i8, ptr %52, align 1
  %conv72 = sext i8 %53 to i32
  %cmp73 = icmp eq i32 %conv72, 52
  br i1 %cmp73, label %land.rhs74, label %land.end

land.rhs74:                                       ; preds = %lor.rhs71
  %54 = load i32, ptr %result, align 4
  %shr = lshr i32 %54, 31
  %tobool75 = icmp ne i32 %shr, 0
  br label %land.end

land.end:                                         ; preds = %land.rhs74, %lor.rhs71
  %55 = phi i1 [ false, %lor.rhs71 ], [ %tobool75, %land.rhs74 ]
  br label %lor.end76

lor.end76:                                        ; preds = %land.end, %land.rhs68
  %56 = phi i1 [ true, %land.rhs68 ], [ %55, %land.end ]
  br label %land.end77

land.end77:                                       ; preds = %lor.end76, %land.rhs
  %57 = phi i1 [ false, %land.rhs ], [ %56, %lor.end76 ]
  %lnot = xor i1 %57, true
  br label %land.end78

land.end78:                                       ; preds = %land.end77, %for.end61
  %58 = phi i1 [ false, %for.end61 ], [ %lnot, %land.end77 ]
  %frombool79 = zext i1 %58 to i8
  store i8 %frombool79, ptr %overflow, align 1
  br label %if.end80

if.end80:                                         ; preds = %land.end78, %for.end
  %59 = load i8, ptr %negative, align 1
  %tobool81 = trunc i8 %59 to i1
  br i1 %tobool81, label %if.then82, label %if.else87

if.then82:                                        ; preds = %if.end80
  %60 = load i8, ptr %overflow, align 1
  %tobool83 = trunc i8 %60 to i1
  br i1 %tobool83, label %cond.true, label %lor.lhs.false

lor.lhs.false:                                    ; preds = %if.then82
  %61 = load i32, ptr %result, align 4
  %62 = load i32, ptr %minv.addr, align 4
  %sub84 = sub i32 0, %62
  %cmp85 = icmp ugt i32 %61, %sub84
  br i1 %cmp85, label %cond.true, label %cond.false

cond.true:                                        ; preds = %lor.lhs.false, %if.then82
  %63 = load i32, ptr %minv.addr, align 4
  br label %cond.end

cond.false:                                       ; preds = %lor.lhs.false
  %64 = load i32, ptr %result, align 4
  %sub86 = sub i32 0, %64
  br label %cond.end

cond.end:                                         ; preds = %cond.false, %cond.true
  %cond = phi i32 [ %63, %cond.true ], [ %sub86, %cond.false ]
  store i32 %cond, ptr %retval, align 4
  br label %return

if.else87:                                        ; preds = %if.end80
  %65 = load i8, ptr %overflow, align 1
  %tobool88 = trunc i8 %65 to i1
  br i1 %tobool88, label %cond.true91, label %lor.lhs.false89

lor.lhs.false89:                                  ; preds = %if.else87
  %66 = load i32, ptr %result, align 4
  %67 = load i32, ptr %maxv.addr, align 4
  %cmp90 = icmp ugt i32 %66, %67
  br i1 %cmp90, label %cond.true91, label %cond.false92

cond.true91:                                      ; preds = %lor.lhs.false89, %if.else87
  %68 = load i32, ptr %maxv.addr, align 4
  br label %cond.end93

cond.false92:                                     ; preds = %lor.lhs.false89
  %69 = load i32, ptr %result, align 4
  br label %cond.end93

cond.end93:                                       ; preds = %cond.false92, %cond.true91
  %cond94 = phi i32 [ %68, %cond.true91 ], [ %69, %cond.false92 ]
  store i32 %cond94, ptr %retval, align 4
  br label %return

return:                                           ; preds = %cond.end93, %cond.end
  %70 = load i32, ptr %retval, align 4
  ret i32 %70
}