; Function Attrs: mustprogress nofree norecurse nosync nounwind willreturn memory(read, inaccessiblemem: none) uwtable
define internal fastcc noundef i32 @_ZN4pugi4impl12_GLOBAL__N_117string_to_integerIjEET_PKcS3_S3_(ptr noundef %value, i32 noundef %minv, i32 noundef %maxv) unnamed_addr #9 {
entry:
  br label %while.cond

while.cond:                                       ; preds = %while.cond, %entry
  %s.0 = phi ptr [ %value, %entry ], [ %incdec.ptr, %while.cond ]
  %0 = load i8, ptr %s.0, align 1
  %idxprom = zext i8 %0 to i64
  %arrayidx = getelementptr inbounds [256 x i8], ptr @_ZN4pugi4impl12_GLOBAL__N_114chartype_tableE, i64 0, i64 %idxprom
  %1 = load i8, ptr %arrayidx, align 1
  %2 = and i8 %1, 8
  %tobool.not = icmp eq i8 %2, 0
  %incdec.ptr = getelementptr inbounds i8, ptr %s.0, i64 1
  br i1 %tobool.not, label %while.end, label %while.cond, !llvm.loop !248

while.end:                                        ; preds = %while.cond
  %cmp = icmp eq i8 %0, 45
  %cmp3 = icmp eq i8 %0, 43
  %spec.select = or i1 %cmp3, %cmp
  %idx.ext = zext i1 %spec.select to i64
  %add.ptr = getelementptr inbounds i8, ptr %s.0, i64 %idx.ext
  %3 = load i8, ptr %add.ptr, align 1
  %cmp9 = icmp eq i8 %3, 48
  br i1 %cmp9, label %land.lhs.true, label %while.cond42.preheader

while.cond42.preheader:                           ; preds = %land.lhs.true, %while.end
  br label %while.cond42

land.lhs.true:                                    ; preds = %while.end
  %arrayidx10 = getelementptr inbounds i8, ptr %add.ptr, i64 1
  %4 = load i8, ptr %arrayidx10, align 1
  %5 = and i8 %4, -33
  %cmp12 = icmp eq i8 %5, 88
  br i1 %cmp12, label %if.then, label %while.cond42.preheader

if.then:                                          ; preds = %land.lhs.true
  %add.ptr13 = getelementptr inbounds i8, ptr %add.ptr, i64 2
  br label %while.cond14

while.cond14:                                     ; preds = %while.cond14, %if.then
  %s.1 = phi ptr [ %add.ptr13, %if.then ], [ %incdec.ptr18, %while.cond14 ]
  %6 = load i8, ptr %s.1, align 1
  %cmp16 = icmp eq i8 %6, 48
  %incdec.ptr18 = getelementptr inbounds i8, ptr %s.1, i64 1
  br i1 %cmp16, label %while.cond14, label %for.cond, !llvm.loop !249

for.cond:                                         ; preds = %while.cond14, %if.end37
  %7 = phi i8 [ %.pre, %if.end37 ], [ %6, %while.cond14 ]
  %s.2 = phi ptr [ %incdec.ptr38, %if.end37 ], [ %s.1, %while.cond14 ]
  %result.0 = phi i32 [ %result.1, %if.end37 ], [ 0, %while.cond14 ]
  %conv20 = sext i8 %7 to i32
  %sub = add nsw i32 %conv20, -48
  %cmp21 = icmp ult i32 %sub, 10
  br i1 %cmp21, label %if.then22, label %if.else

if.then22:                                        ; preds = %for.cond
  %mul = shl i32 %result.0, 4
  %add = or disjoint i32 %sub, %mul
  br label %if.end37

if.else:                                          ; preds = %for.cond
  %or26 = or i32 %conv20, 32
  %sub27 = add nsw i32 %or26, -97
  %cmp28 = icmp ult i32 %sub27, 6
  br i1 %cmp28, label %if.then29, label %for.end

if.then29:                                        ; preds = %if.else
  %mul30 = shl i32 %result.0, 4
  %add34 = add i32 %mul30, -87
  %add35 = add i32 %add34, %or26
  br label %if.end37

if.end37:                                         ; preds = %if.then29, %if.then22
  %result.1 = phi i32 [ %add, %if.then22 ], [ %add35, %if.then29 ]
  %incdec.ptr38 = getelementptr inbounds i8, ptr %s.2, i64 1
  %.pre = load i8, ptr %incdec.ptr38, align 1
  br label %for.cond, !llvm.loop !250

for.end:                                          ; preds = %if.else
  %sub.ptr.lhs.cast = ptrtoint ptr %s.2 to i64
  %sub.ptr.rhs.cast = ptrtoint ptr %s.1 to i64
  %sub.ptr.sub = sub i64 %sub.ptr.lhs.cast, %sub.ptr.rhs.cast
  %cmp39 = icmp ugt i64 %sub.ptr.sub, 8
  br label %if.end80

while.cond42:                                     ; preds = %while.cond42.preheader, %while.cond42
  %s.3 = phi ptr [ %incdec.ptr46, %while.cond42 ], [ %add.ptr, %while.cond42.preheader ]
  %8 = load i8, ptr %s.3, align 1
  %cmp44 = icmp eq i8 %8, 48
  %incdec.ptr46 = getelementptr inbounds i8, ptr %s.3, i64 1
  br i1 %cmp44, label %while.cond42, label %for.cond49.preheader, !llvm.loop !251

for.cond49.preheader:                             ; preds = %while.cond42
  %conv5040 = sext i8 %8 to i32
  %sub5141 = add nsw i32 %conv5040, -48
  %cmp5242 = icmp ult i32 %sub5141, 10
  br i1 %cmp5242, label %if.then53, label %for.end61

if.then53:                                        ; preds = %for.cond49.preheader, %if.then53
  %sub5145 = phi i32 [ %sub51, %if.then53 ], [ %sub5141, %for.cond49.preheader ]
  %result.244 = phi i32 [ %add57, %if.then53 ], [ 0, %for.cond49.preheader ]
  %s.443 = phi ptr [ %incdec.ptr60, %if.then53 ], [ %s.3, %for.cond49.preheader ]
  %mul54 = mul i32 %result.244, 10
  %add57 = add i32 %sub5145, %mul54
  %incdec.ptr60 = getelementptr inbounds i8, ptr %s.443, i64 1
  %9 = load i8, ptr %incdec.ptr60, align 1
  %conv50 = sext i8 %9 to i32
  %sub51 = add nsw i32 %conv50, -48
  %cmp52 = icmp ult i32 %sub51, 10
  br i1 %cmp52, label %if.then53, label %for.end61, !llvm.loop !252

for.end61:                                        ; preds = %if.then53, %for.cond49.preheader
  %s.4.lcssa = phi ptr [ %s.3, %for.cond49.preheader ], [ %incdec.ptr60, %if.then53 ]
  %result.2.lcssa = phi i32 [ 0, %for.cond49.preheader ], [ %add57, %if.then53 ]
  %sub.ptr.lhs.cast63 = ptrtoint ptr %s.4.lcssa to i64
  %sub.ptr.rhs.cast64 = ptrtoint ptr %s.3 to i64
  %sub.ptr.sub65 = sub i64 %sub.ptr.lhs.cast63, %sub.ptr.rhs.cast64
  %cmp66 = icmp ugt i64 %sub.ptr.sub65, 9
  br i1 %cmp66, label %land.rhs, label %if.end80

land.rhs:                                         ; preds = %for.end61
  %cmp67 = icmp eq i64 %sub.ptr.sub65, 10
  br i1 %cmp67, label %land.rhs68, label %if.end80

land.rhs68:                                       ; preds = %land.rhs
  %cmp70 = icmp slt i8 %8, 52
  br i1 %cmp70, label %if.end80, label %lor.rhs71

lor.rhs71:                                        ; preds = %land.rhs68
  %cmp73 = icmp ne i8 %8, 52
  %tobool75 = icmp sgt i32 %result.2.lcssa, -1
  %.not = select i1 %cmp73, i1 true, i1 %tobool75
  br label %if.end80

if.end80:                                         ; preds = %for.end61, %land.rhs68, %lor.rhs71, %land.rhs, %for.end
  %overflow.0 = phi i1 [ %cmp39, %for.end ], [ false, %for.end61 ], [ true, %land.rhs ], [ false, %land.rhs68 ], [ %.not, %lor.rhs71 ]
  %result.3 = phi i32 [ %result.0, %for.end ], [ %result.2.lcssa, %for.end61 ], [ %result.2.lcssa, %land.rhs ], [ %result.2.lcssa, %land.rhs68 ], [ %result.2.lcssa, %lor.rhs71 ]
  br i1 %cmp, label %if.then82, label %if.else87

if.then82:                                        ; preds = %if.end80
  %sub84 = sub i32 0, %minv
  %cmp85 = icmp ugt i32 %result.3, %sub84
  %or.cond = select i1 %overflow.0, i1 true, i1 %cmp85
  %sub86 = sub i32 0, %result.3
  %cond = select i1 %or.cond, i32 %minv, i32 %sub86
  br label %return

if.else87:                                        ; preds = %if.end80
  %10 = tail call i32 @llvm.umin.i32(i32 %result.3, i32 %maxv)
  %cond94 = select i1 %overflow.0, i32 %maxv, i32 %10
  br label %return

return:                                           ; preds = %if.else87, %if.then82
  %retval.0 = phi i32 [ %cond, %if.then82 ], [ %cond94, %if.else87 ]
  ret i32 %retval.0
}